; ModuleID = '3/1805.c'
source_filename = "3/1805.c"
target datalayout = "e-m:e-p270:32:32-p271:32:32-p272:64:64-i64:64-f80:128-n8:16:32:64-S128"
target triple = "x86_64-pc-linux-gnu"

@.str = private unnamed_addr constant [5 x i8] c"%d%d\00", align 1
@.str.1 = private unnamed_addr constant [3 x i8] c"%d\00", align 1
@.str.2 = private unnamed_addr constant [3 x i8] c"no\00", align 1
@.str.3 = private unnamed_addr constant [4 x i8] c"yes\00", align 1

; Function Attrs: noinline nounwind uwtable
define dso_local i32 @main() #0 {
  %1 = alloca i32, align 4
  %2 = alloca i32, align 4
  %3 = alloca i32, align 4
  %4 = alloca [1000 x i32], align 16
  %5 = alloca i32, align 4
  %6 = alloca i32, align 4
  %7 = alloca i32, align 4
  %8 = alloca i32, align 4
  %9 = alloca i32, align 4
  %10 = alloca i32*, align 8
  store i32 0, i32* %1, align 4
  %11 = call i32 (i8*, ...) @__isoc99_scanf(i8* getelementptr inbounds ([5 x i8], [5 x i8]* @.str, i64 0, i64 0), i32* %2, i32* %5)
  store i32 0, i32* %6, align 4
  br label %12

12:                                               ; preds = %21, %0
  %13 = load i32, i32* %6, align 4
  %14 = load i32, i32* %2, align 4
  %15 = icmp slt i32 %13, %14
  br i1 %15, label %16, label %24

16:                                               ; preds = %12
  %17 = load i32, i32* %6, align 4
  %18 = sext i32 %17 to i64
  %19 = getelementptr inbounds [1000 x i32], [1000 x i32]* %4, i64 0, i64 %18
  %20 = call i32 (i8*, ...) @__isoc99_scanf(i8* getelementptr inbounds ([3 x i8], [3 x i8]* @.str.1, i64 0, i64 0), i32* %19)
  br label %21

21:                                               ; preds = %16
  %22 = load i32, i32* %6, align 4
  %23 = add nsw i32 %22, 1
  store i32 %23, i32* %6, align 4
  br label %12

24:                                               ; preds = %12
  %25 = load i32, i32* %2, align 4
  %26 = load i32, i32* %2, align 4
  %27 = sub nsw i32 %26, 1
  %28 = mul nsw i32 %25, %27
  store i32 %28, i32* %3, align 4
  %29 = load i32, i32* %3, align 4
  %30 = sext i32 %29 to i64
  %31 = mul i64 4, %30
  %32 = call noalias i8* @malloc(i64 %31) #3
  %33 = bitcast i8* %32 to i32*
  store i32* %33, i32** %10, align 8
  store i32 0, i32* %8, align 4
  store i32 0, i32* %9, align 4
  store i32 0, i32* %6, align 4
  br label %34

34:                                               ; preds = %69, %24
  %35 = load i32, i32* %6, align 4
  %36 = load i32, i32* %2, align 4
  %37 = icmp slt i32 %35, %36
  br i1 %37, label %38, label %72

38:                                               ; preds = %34
  store i32 0, i32* %7, align 4
  br label %39

39:                                               ; preds = %65, %38
  %40 = load i32, i32* %7, align 4
  %41 = load i32, i32* %2, align 4
  %42 = icmp slt i32 %40, %41
  br i1 %42, label %43, label %47

43:                                               ; preds = %39
  %44 = load i32, i32* %7, align 4
  %45 = load i32, i32* %6, align 4
  %46 = icmp ne i32 %44, %45
  br label %47

47:                                               ; preds = %43, %39
  %48 = phi i1 [ false, %39 ], [ %46, %43 ]
  br i1 %48, label %49, label %68

49:                                               ; preds = %47
  %50 = load i32, i32* %6, align 4
  %51 = sext i32 %50 to i64
  %52 = getelementptr inbounds [1000 x i32], [1000 x i32]* %4, i64 0, i64 %51
  %53 = load i32, i32* %52, align 4
  %54 = load i32, i32* %7, align 4
  %55 = sext i32 %54 to i64
  %56 = getelementptr inbounds [1000 x i32], [1000 x i32]* %4, i64 0, i64 %55
  %57 = load i32, i32* %56, align 4
  %58 = add nsw i32 %53, %57
  %59 = load i32*, i32** %10, align 8
  %60 = load i32, i32* %8, align 4
  %61 = sext i32 %60 to i64
  %62 = getelementptr inbounds i32, i32* %59, i64 %61
  store i32 %58, i32* %62, align 4
  %63 = load i32, i32* %8, align 4
  %64 = add nsw i32 %63, 1
  store i32 %64, i32* %8, align 4
  br label %65

65:                                               ; preds = %49
  %66 = load i32, i32* %7, align 4
  %67 = add nsw i32 %66, 1
  store i32 %67, i32* %7, align 4
  br label %39

68:                                               ; preds = %47
  br label %69

69:                                               ; preds = %68
  %70 = load i32, i32* %6, align 4
  %71 = add nsw i32 %70, 1
  store i32 %71, i32* %6, align 4
  br label %34

72:                                               ; preds = %34
  store i32 0, i32* %6, align 4
  br label %73

73:                                               ; preds = %89, %72
  %74 = load i32, i32* %6, align 4
  %75 = load i32, i32* %8, align 4
  %76 = icmp slt i32 %74, %75
  br i1 %76, label %77, label %92

77:                                               ; preds = %73
  %78 = load i32*, i32** %10, align 8
  %79 = load i32, i32* %6, align 4
  %80 = sext i32 %79 to i64
  %81 = getelementptr inbounds i32, i32* %78, i64 %80
  %82 = load i32, i32* %81, align 4
  %83 = load i32, i32* %5, align 4
  %84 = icmp eq i32 %82, %83
  br i1 %84, label %85, label %88

85:                                               ; preds = %77
  %86 = load i32, i32* %9, align 4
  %87 = add nsw i32 %86, 1
  store i32 %87, i32* %9, align 4
  br label %88

88:                                               ; preds = %85, %77
  br label %89

89:                                               ; preds = %88
  %90 = load i32, i32* %6, align 4
  %91 = add nsw i32 %90, 1
  store i32 %91, i32* %6, align 4
  br label %73

92:                                               ; preds = %73
  %93 = load i32, i32* %9, align 4
  %94 = icmp eq i32 %93, 0
  br i1 %94, label %95, label %97

95:                                               ; preds = %92
  %96 = call i32 (i8*, ...) @printf(i8* getelementptr inbounds ([3 x i8], [3 x i8]* @.str.2, i64 0, i64 0))
  br label %99

97:                                               ; preds = %92
  %98 = call i32 (i8*, ...) @printf(i8* getelementptr inbounds ([4 x i8], [4 x i8]* @.str.3, i64 0, i64 0))
  br label %99

99:                                               ; preds = %97, %95
  %100 = load i32*, i32** %10, align 8
  %101 = bitcast i32* %100 to i8*
  call void @free(i8* %101) #3
  ret i32 0
}

declare dso_local i32 @__isoc99_scanf(i8*, ...) #1

; Function Attrs: nounwind
declare dso_local noalias i8* @malloc(i64) #2

declare dso_local i32 @printf(i8*, ...) #1

; Function Attrs: nounwind
declare dso_local void @free(i8*) #2


!llvm.module.flags = !{!0}
!llvm.ident = !{!1}

!0 = !{i32 1, !"wchar_size", i32 4}
!1 = !{!"clang version 10.0.0-4ubuntu1 "}
